; Function Attrs: nounwind uwtable
define void @ff_vvc_frame_thread_free(ptr noundef readonly captures(none) %0) local_unnamed_addr #0 {
  %2 = alloca ptr, align 8
  call void @llvm.lifetime.start.p0(i64 8, ptr nonnull %2) #7
  %3 = getelementptr inbounds nuw i8, ptr %0, i64 21288
  %4 = load ptr, ptr %3, align 8, !tbaa !23
  store ptr %4, ptr %2, align 8, !tbaa !86
  %.not = icmp eq ptr %4, null
  br i1 %.not, label %12, label %5

5:                                                ; preds = %1
  %6 = getelementptr inbounds nuw i8, ptr %4, i64 56
  %7 = tail call i32 @pthread_mutex_destroy(ptr noundef nonnull %6) #7
  %8 = getelementptr inbounds nuw i8, ptr %4, i64 96
  %9 = tail call i32 @pthread_cond_destroy(ptr noundef nonnull %8) #7
  %10 = getelementptr inbounds nuw i8, ptr %4, i64 8
  tail call void @av_freep(ptr noundef nonnull %10) #7
  %11 = getelementptr inbounds nuw i8, ptr %4, i64 16
  tail call void @av_freep(ptr noundef nonnull %11) #7
  call void @av_freep(ptr noundef nonnull %2) #7
  br label %12

12:                                               ; preds = %1, %5
  call void @llvm.lifetime.end.p0(i64 8, ptr nonnull %2) #7
  ret void
}